target datalayout = "e-m:e-p270:32:32-p271:32:32-p272:64:64-i64:64-i128:128-f80:128-n8:16:32:64-S128"
target triple = "x86_64-pc-linux-gnu"

%struct.PJconsts = type { ptr, ptr, ptr, ptr, ptr, ptr, ptr, ptr, ptr, ptr, ptr, ptr, i32, ptr, ptr, ptr, ptr, ptr, ptr, ptr, ptr, double, double, double, double, double, double, double, double, double, double, double, double, double, double, double, double, double, double, double, double, double, double, i32, i32, i32, i32, i32, i32, i32, i32, i32, i32, i32, ptr, ptr, ptr, ptr, ptr, ptr, double, double, double, double, double, double, double, double, double, double, double, i32, [7 x double], i32, ptr, ptr, double, double, i32, [4 x i8], %"class.std::shared_ptr", i8, double, i8, %"class.std::__cxx11::basic_string", %"class.std::__cxx11::basic_string", %"class.std::__cxx11::basic_string", i8, %"class.std::vector", i32, %"class.std::vector.3", i32, i8, i8, i8, ptr }
%"class.std::shared_ptr" = type { %"class.std::__shared_ptr" }
%"class.std::__shared_ptr" = type { ptr, %"class.std::__shared_count" }
%"class.std::__shared_count" = type { ptr }
%"class.std::__cxx11::basic_string" = type { %"struct.std::__cxx11::basic_string<char>::_Alloc_hider", i64, %union.anon }
%"struct.std::__cxx11::basic_string<char>::_Alloc_hider" = type { ptr }
%union.anon = type { i64, [8 x i8] }
%"class.std::vector" = type { %"struct.std::_Vector_base" }
%"struct.std::_Vector_base" = type { %"struct.std::_Vector_base<osgeo::proj::operation::GridDescription, std::allocator<osgeo::proj::operation::GridDescription>>::_Vector_impl" }
%"struct.std::_Vector_base<osgeo::proj::operation::GridDescription, std::allocator<osgeo::proj::operation::GridDescription>>::_Vector_impl" = type { %"struct.std::_Vector_base<osgeo::proj::operation::GridDescription, std::allocator<osgeo::proj::operation::GridDescription>>::_Vector_impl_data" }
%"struct.std::_Vector_base<osgeo::proj::operation::GridDescription, std::allocator<osgeo::proj::operation::GridDescription>>::_Vector_impl_data" = type { ptr, ptr, ptr }
%"class.std::vector.3" = type { %"struct.std::_Vector_base.4" }
%"struct.std::_Vector_base.4" = type { %"struct.std::_Vector_base<PJCoordOperation, std::allocator<PJCoordOperation>>::_Vector_impl" }
%"struct.std::_Vector_base<PJCoordOperation, std::allocator<PJCoordOperation>>::_Vector_impl" = type { %"struct.std::_Vector_base<PJCoordOperation, std::allocator<PJCoordOperation>>::_Vector_impl_data" }
%"struct.std::_Vector_base<PJCoordOperation, std::allocator<PJCoordOperation>>::_Vector_impl_data" = type { ptr, ptr, ptr }
%"struct.(anonymous namespace)::pj_eqdc_data" = type { double, double, double, double, double, double, ptr, i32 }
%struct.PJ_LP = type { double, double }
%struct.PJ_XY = type { double, double }

; Function Attrs: mustprogress uwtable
define internal { double, double } @_ZL14eqdc_e_inverse5PJ_XYP8PJconsts(double %0, double %1, ptr noundef %2) #0 {
  %4 = alloca %struct.PJ_LP, align 8
  %5 = alloca %struct.PJ_XY, align 8
  %6 = alloca ptr, align 8
  %7 = alloca ptr, align 8
  %8 = getelementptr inbounds nuw { double, double }, ptr %5, i32 0, i32 0
  store double %0, ptr %8, align 8
  %9 = getelementptr inbounds nuw { double, double }, ptr %5, i32 0, i32 1
  store double %1, ptr %9, align 8
  store ptr %2, ptr %6, align 8, !tbaa !3
  call void @llvm.memset.p0.i64(ptr align 8 %4, i8 0, i64 16, i1 false)
  call void @llvm.lifetime.start.p0(i64 8, ptr %7) #7
  %10 = load ptr, ptr %6, align 8, !tbaa !3
  %11 = getelementptr inbounds nuw %struct.PJconsts, ptr %10, i32 0, i32 11
  %12 = load ptr, ptr %11, align 8, !tbaa !43
  store ptr %12, ptr %7, align 8, !tbaa !41
  %13 = getelementptr inbounds nuw %struct.PJ_XY, ptr %5, i32 0, i32 0
  %14 = load double, ptr %13, align 8, !tbaa !64
  %15 = load ptr, ptr %7, align 8, !tbaa !41
  %16 = getelementptr inbounds nuw %"struct.(anonymous namespace)::pj_eqdc_data", ptr %15, i32 0, i32 4
  %17 = load double, ptr %16, align 8, !tbaa !61
  %18 = getelementptr inbounds nuw %struct.PJ_XY, ptr %5, i32 0, i32 1
  %19 = load double, ptr %18, align 8, !tbaa !66
  %20 = fsub double %17, %19
  %21 = getelementptr inbounds nuw %struct.PJ_XY, ptr %5, i32 0, i32 1
  store double %20, ptr %21, align 8, !tbaa !66
  %22 = call double @hypot(double noundef %14, double noundef %20) #7, !tbaa !54
  %23 = load ptr, ptr %7, align 8, !tbaa !41
  %24 = getelementptr inbounds nuw %"struct.(anonymous namespace)::pj_eqdc_data", ptr %23, i32 0, i32 3
  store double %22, ptr %24, align 8, !tbaa !67
  %25 = fcmp une double %22, 0.000000e+00
  br i1 %25, label %26, label %78

26:                                               ; preds = %3
  %27 = load ptr, ptr %7, align 8, !tbaa !41
  %28 = getelementptr inbounds nuw %"struct.(anonymous namespace)::pj_eqdc_data", ptr %27, i32 0, i32 2
  %29 = load double, ptr %28, align 8, !tbaa !56
  %30 = fcmp olt double %29, 0.000000e+00
  br i1 %30, label %31, label %46

31:                                               ; preds = %26
  %32 = load ptr, ptr %7, align 8, !tbaa !41
  %33 = getelementptr inbounds nuw %"struct.(anonymous namespace)::pj_eqdc_data", ptr %32, i32 0, i32 3
  %34 = load double, ptr %33, align 8, !tbaa !67
  %35 = fneg double %34
  %36 = load ptr, ptr %7, align 8, !tbaa !41
  %37 = getelementptr inbounds nuw %"struct.(anonymous namespace)::pj_eqdc_data", ptr %36, i32 0, i32 3
  store double %35, ptr %37, align 8, !tbaa !67
  %38 = getelementptr inbounds nuw %struct.PJ_XY, ptr %5, i32 0, i32 0
  %39 = load double, ptr %38, align 8, !tbaa !64
  %40 = fneg double %39
  %41 = getelementptr inbounds nuw %struct.PJ_XY, ptr %5, i32 0, i32 0
  store double %40, ptr %41, align 8, !tbaa !64
  %42 = getelementptr inbounds nuw %struct.PJ_XY, ptr %5, i32 0, i32 1
  %43 = load double, ptr %42, align 8, !tbaa !66
  %44 = fneg double %43
  %45 = getelementptr inbounds nuw %struct.PJ_XY, ptr %5, i32 0, i32 1
  store double %44, ptr %45, align 8, !tbaa !66
  br label %46

46:                                               ; preds = %31, %26
  %47 = load ptr, ptr %7, align 8, !tbaa !41
  %48 = getelementptr inbounds nuw %"struct.(anonymous namespace)::pj_eqdc_data", ptr %47, i32 0, i32 5
  %49 = load double, ptr %48, align 8, !tbaa !59
  %50 = load ptr, ptr %7, align 8, !tbaa !41
  %51 = getelementptr inbounds nuw %"struct.(anonymous namespace)::pj_eqdc_data", ptr %50, i32 0, i32 3
  %52 = load double, ptr %51, align 8, !tbaa !67
  %53 = fsub double %49, %52
  %54 = getelementptr inbounds nuw %struct.PJ_LP, ptr %4, i32 0, i32 1
  store double %53, ptr %54, align 8, !tbaa !68
  %55 = load ptr, ptr %7, align 8, !tbaa !41
  %56 = getelementptr inbounds nuw %"struct.(anonymous namespace)::pj_eqdc_data", ptr %55, i32 0, i32 7
  %57 = load i32, ptr %56, align 8, !tbaa !58
  %58 = icmp ne i32 %57, 0
  br i1 %58, label %59, label %67

59:                                               ; preds = %46
  %60 = getelementptr inbounds nuw %struct.PJ_LP, ptr %4, i32 0, i32 1
  %61 = load double, ptr %60, align 8, !tbaa !68
  %62 = load ptr, ptr %7, align 8, !tbaa !41
  %63 = getelementptr inbounds nuw %"struct.(anonymous namespace)::pj_eqdc_data", ptr %62, i32 0, i32 6
  %64 = load ptr, ptr %63, align 8, !tbaa !53
  %65 = call noundef double @_Z11pj_inv_mlfndPKd(double noundef %61, ptr noundef %64)
  %66 = getelementptr inbounds nuw %struct.PJ_LP, ptr %4, i32 0, i32 1
  store double %65, ptr %66, align 8, !tbaa !68
  br label %67

67:                                               ; preds = %59, %46
  %68 = getelementptr inbounds nuw %struct.PJ_XY, ptr %5, i32 0, i32 0
  %69 = load double, ptr %68, align 8, !tbaa !64
  %70 = getelementptr inbounds nuw %struct.PJ_XY, ptr %5, i32 0, i32 1
  %71 = load double, ptr %70, align 8, !tbaa !66
  %72 = call double @atan2(double noundef %69, double noundef %71) #7, !tbaa !54
  %73 = load ptr, ptr %7, align 8, !tbaa !41
  %74 = getelementptr inbounds nuw %"struct.(anonymous namespace)::pj_eqdc_data", ptr %73, i32 0, i32 2
  %75 = load double, ptr %74, align 8, !tbaa !56
  %76 = fdiv double %72, %75
  %77 = getelementptr inbounds nuw %struct.PJ_LP, ptr %4, i32 0, i32 0
  store double %76, ptr %77, align 8, !tbaa !70
  br label %86

78:                                               ; preds = %3
  %79 = getelementptr inbounds nuw %struct.PJ_LP, ptr %4, i32 0, i32 0
  store double 0.000000e+00, ptr %79, align 8, !tbaa !70
  %80 = load ptr, ptr %7, align 8, !tbaa !41
  %81 = getelementptr inbounds nuw %"struct.(anonymous namespace)::pj_eqdc_data", ptr %80, i32 0, i32 2
  %82 = load double, ptr %81, align 8, !tbaa !56
  %83 = fcmp ogt double %82, 0.000000e+00
  %84 = select i1 %83, double 0x3FF921FB54442D18, double 0xBFF921FB54442D18
  %85 = getelementptr inbounds nuw %struct.PJ_LP, ptr %4, i32 0, i32 1
  store double %84, ptr %85, align 8, !tbaa !68
  br label %86

86:                                               ; preds = %78, %67
  call void @llvm.lifetime.end.p0(i64 8, ptr %7) #7
  %87 = load { double, double }, ptr %4, align 8
  ret { double, double } %87
}