; Function Attrs: mustprogress uwtable
define internal { double, double } @_ZL14eqdc_e_inverse5PJ_XYP8PJconsts(double %0, double %1, ptr noundef readonly captures(none) %2) #0 {
  %4 = getelementptr inbounds nuw i8, ptr %2, i64 88
  %5 = load ptr, ptr %4, align 8, !tbaa !40
  %6 = getelementptr inbounds nuw i8, ptr %5, i64 32
  %7 = load double, ptr %6, align 8, !tbaa !56
  %8 = fsub double %7, %1
  %9 = tail call double @hypot(double noundef %0, double noundef %8) #7, !tbaa !50
  %10 = getelementptr inbounds nuw i8, ptr %5, i64 24
  store double %9, ptr %10, align 8, !tbaa !59
  %11 = fcmp une double %9, 0.000000e+00
  %12 = getelementptr inbounds nuw i8, ptr %5, i64 16
  %13 = load double, ptr %12, align 8, !tbaa !51
  br i1 %11, label %14, label %35

14:                                               ; preds = %3
  %15 = fcmp olt double %13, 0.000000e+00
  br i1 %15, label %16, label %20

16:                                               ; preds = %14
  %17 = fneg double %9
  store double %17, ptr %10, align 8, !tbaa !59
  %18 = fneg double %0
  %19 = fneg double %8
  br label %20

20:                                               ; preds = %16, %14
  %21 = phi double [ %17, %16 ], [ %9, %14 ]
  %.sroa.5.0 = phi double [ %19, %16 ], [ %8, %14 ]
  %.sroa.0.0 = phi double [ %18, %16 ], [ %0, %14 ]
  %22 = getelementptr inbounds nuw i8, ptr %5, i64 40
  %23 = load double, ptr %22, align 8, !tbaa !54
  %24 = fsub double %23, %21
  %25 = getelementptr inbounds nuw i8, ptr %5, i64 56
  %26 = load i32, ptr %25, align 8, !tbaa !53
  %.not = icmp eq i32 %26, 0
  br i1 %.not, label %31, label %27

27:                                               ; preds = %20
  %28 = getelementptr inbounds nuw i8, ptr %5, i64 48
  %29 = load ptr, ptr %28, align 8, !tbaa !48
  %30 = tail call noundef double @_Z11pj_inv_mlfndPKd(double noundef %24, ptr noundef %29)
  %.pre = load double, ptr %12, align 8, !tbaa !51
  br label %31

31:                                               ; preds = %27, %20
  %32 = phi double [ %.pre, %27 ], [ %13, %20 ]
  %.sroa.4.0 = phi double [ %30, %27 ], [ %24, %20 ]
  %33 = tail call double @atan2(double noundef %.sroa.0.0, double noundef %.sroa.5.0) #7, !tbaa !50
  %34 = fdiv double %33, %32
  br label %38

35:                                               ; preds = %3
  %36 = fcmp ogt double %13, 0.000000e+00
  %37 = select i1 %36, double 0x3FF921FB54442D18, double 0xBFF921FB54442D18
  br label %38

38:                                               ; preds = %35, %31
  %.sroa.4.1 = phi double [ %.sroa.4.0, %31 ], [ %37, %35 ]
  %.sroa.016.0 = phi double [ %34, %31 ], [ 0.000000e+00, %35 ]
  %.fca.0.insert = insertvalue { double, double } poison, double %.sroa.016.0, 0
  %.fca.1.insert = insertvalue { double, double } %.fca.0.insert, double %.sroa.4.1, 1
  ret { double, double } %.fca.1.insert
}